target datalayout = "e-m:e-p270:32:32-p271:32:32-p272:64:64-i64:64-i128:128-f80:128-n8:16:32:64-S128"
target triple = "x86_64-pc-linux-gnu"

%struct.hb_object_header_t = type { %struct.hb_reference_count_t, %struct.hb_atomic_int_t, %struct.hb_atomic_ptr_t }
%struct.hb_reference_count_t = type { %struct.hb_atomic_int_t }
%struct.hb_atomic_int_t = type { i32 }
%struct.hb_atomic_ptr_t = type { ptr }
%struct.hb_segment_properties_t = type { i32, i32, ptr, ptr, ptr }
%struct.hb_buffer_t = type <{ %struct.hb_object_header_t, ptr, i32, i32, i32, i32, i32, i32, %struct.hb_segment_properties_t, i8, i8, i8, i8, i32, i32, i32, i32, [4 x i8], ptr, ptr, ptr, [2 x [5 x i32]], [2 x i32], i8, i8, [2 x i8], i32, i32, i32, ptr, ptr, ptr, i32, [4 x i8] }>

; Function Attrs: mustprogress nounwind uwtable
define linkonce_odr hidden void @_ZN11hb_buffer_t18deallocate_var_allEv(ptr noundef nonnull align 8 dereferenceable(220) %0) #0 comdat align 2 {
  %2 = alloca ptr, align 8
  store ptr %0, ptr %2, align 8
  %3 = load ptr, ptr %2, align 8
  %4 = getelementptr inbounds %struct.hb_buffer_t, ptr %3, i32 0, i32 23
  store i8 0, ptr %4, align 8
  ret void
}

; Function Attrs: mustprogress uwtable
define hidden void @_ZN11hb_buffer_t5leaveEv(ptr noundef nonnull align 8 dereferenceable(220) %0) #1 align 2 {
  %2 = alloca ptr, align 8
  store ptr %0, ptr %2, align 8
  %3 = load ptr, ptr %2, align 8
  %4 = getelementptr inbounds %struct.hb_buffer_t, ptr %3, i32 0, i32 27
  store i32 1073741823, ptr %4, align 8
  %5 = getelementptr inbounds %struct.hb_buffer_t, ptr %3, i32 0, i32 28
  store i32 536870911, ptr %5, align 4
  call void @_ZN11hb_buffer_t18deallocate_var_allEv(ptr noundef nonnull align 8 dereferenceable(220) %3)
  %6 = getelementptr inbounds %struct.hb_buffer_t, ptr %3, i32 0, i32 24
  store i8 0, ptr %6, align 1
  ret void
}