; Function Attrs: mustprogress nofree norecurse nosync nounwind willreturn memory(argmem: write) uwtable
define hidden void @_ZN11hb_buffer_t5leaveEv(ptr nocapture noundef nonnull writeonly align 8 dereferenceable(220) %0) local_unnamed_addr #8 align 2 {
  %2 = getelementptr inbounds i8, ptr %0, i64 184
  store i32 1073741823, ptr %2, align 8
  %3 = getelementptr inbounds i8, ptr %0, i64 188
  store i32 536870911, ptr %3, align 4
  %4 = getelementptr inbounds i8, ptr %0, i64 176
  store i8 0, ptr %4, align 8
  %5 = getelementptr inbounds i8, ptr %0, i64 177
  store i8 0, ptr %5, align 1
  ret void
}